; Function Attrs: null_pointer_is_valid sspstrong uwtable
define internal i32 @dissect_MTSIdentifier_PDU(ptr noundef %0, ptr noundef %1, ptr noundef %2, ptr readnone captures(none) %3) #0 {
  %5 = alloca %struct._asn1_ctx_t, align 8
  call void @llvm.lifetime.start.p0(i64 208, ptr nonnull %5) #5
  call void @asn1_ctx_init(ptr noundef nonnull %5, i32 noundef 0, i1 noundef zeroext true, ptr noundef %1)
  %6 = load i32, ptr @hf_p1_MTSIdentifier_PDU, align 4
  %7 = getelementptr inbounds nuw i8, ptr %5, i64 136
  %8 = load ptr, ptr %7, align 8
  %9 = icmp eq ptr %8, null
  br i1 %9, label %10, label %set_do_address.exit.i

10:                                               ; preds = %4
  %11 = getelementptr inbounds nuw i8, ptr %5, i64 16
  %12 = load ptr, ptr %11, align 8
  %13 = getelementptr inbounds nuw i8, ptr %12, i64 408
  %14 = load ptr, ptr %13, align 8
  %15 = call noalias dereferenceable_or_null(32) ptr @wmem_alloc0(ptr noundef %14, i64 noundef 32) #6
  store ptr %15, ptr %7, align 8
  br label %set_do_address.exit.i

set_do_address.exit.i:                            ; preds = %10, %4
  %16 = phi ptr [ %15, %10 ], [ %8, %4 ]
  store i8 1, ptr %16, align 8
  %17 = call i32 @dissect_ber_tagged_type(i1 noundef zeroext false, ptr noundef nonnull %5, ptr noundef %2, ptr noundef %0, i32 noundef 0, i32 noundef %6, i8 noundef signext 1, i32 noundef 4, i1 noundef zeroext true, ptr noundef nonnull @dissect_p1_MTSIdentifier_U)
  %18 = load ptr, ptr %7, align 8
  %19 = icmp eq ptr %18, null
  br i1 %19, label %20, label %dissect_p1_MTSIdentifier.exit

20:                                               ; preds = %set_do_address.exit.i
  %21 = getelementptr inbounds nuw i8, ptr %5, i64 16
  %22 = load ptr, ptr %21, align 8
  %23 = getelementptr inbounds nuw i8, ptr %22, i64 408
  %24 = load ptr, ptr %23, align 8
  %25 = call noalias dereferenceable_or_null(32) ptr @wmem_alloc0(ptr noundef %24, i64 noundef 32) #6
  br label %dissect_p1_MTSIdentifier.exit

dissect_p1_MTSIdentifier.exit:                    ; preds = %set_do_address.exit.i, %20
  %26 = phi ptr [ %25, %20 ], [ %18, %set_do_address.exit.i ]
  store i8 0, ptr %26, align 8
  call void @llvm.lifetime.end.p0(i64 208, ptr nonnull %5) #5
  ret i32 %17
}